; Function Attrs: mustprogress uwtable
define noundef zeroext i1 @_ZN6icu_7713LocaleUtility12isFallbackOfERKNS_13UnicodeStringES3_(ptr noundef nonnull align 8 dereferenceable(64) %0, ptr noundef nonnull align 8 dereferenceable(64) %1) local_unnamed_addr #1 align 2 {
  %3 = getelementptr inbounds nuw i8, ptr %0, i64 8
  %4 = load i16, ptr %3, align 8, !tbaa !15
  %5 = icmp slt i16 %4, 0
  %6 = ashr i16 %4, 5
  %7 = sext i16 %6 to i32
  %8 = getelementptr inbounds nuw i8, ptr %0, i64 12
  %9 = load i32, ptr %8, align 4
  %10 = select i1 %5, i32 %9, i32 %7
  %11 = getelementptr inbounds nuw i8, ptr %1, i64 8
  %12 = load i16, ptr %11, align 8, !tbaa !15
  %13 = icmp slt i16 %12, 0
  %14 = ashr i16 %12, 5
  %15 = sext i16 %14 to i32
  %16 = getelementptr inbounds nuw i8, ptr %1, i64 12
  %17 = load i32, ptr %16, align 4
  %18 = select i1 %13, i32 %17, i32 %15
  %19 = and i16 %4, 1
  %.not.i.i = icmp eq i16 %19, 0
  br i1 %.not.i.i, label %.sink.split.i.i.i, label %_ZNK6icu_7713UnicodeString7indexOfERKS0_.exit.thread

.sink.split.i.i.i:                                ; preds = %2
  %spec.select.i.i = tail call i32 @llvm.smin.i32(i32 %10, i32 0)
  %20 = icmp slt i32 %10, 0
  br i1 %20, label %_ZNK6icu_7713UnicodeString7indexOfERKS0_.exit.thread, label %_ZNK6icu_7713UnicodeString10pinIndicesERiS1_.exit.i.i

_ZNK6icu_7713UnicodeString10pinIndicesERiS1_.exit.i.i: ; preds = %.sink.split.i.i.i
  %21 = sub nuw nsw i32 %10, %spec.select.i.i
  %22 = tail call i32 @llvm.umin.i32(i32 %10, i32 %21)
  %.not.i = icmp eq i32 %22, 0
  br i1 %.not.i, label %_ZNK6icu_7713UnicodeString7indexOfERKS0_.exit.thread, label %_ZNK6icu_7713UnicodeString7indexOfERKS0_.exit

_ZNK6icu_7713UnicodeString7indexOfERKS0_.exit:    ; preds = %_ZNK6icu_7713UnicodeString10pinIndicesERiS1_.exit.i.i
  %23 = and i16 %4, 2
  %.not.i.i.i = icmp eq i16 %23, 0
  %24 = getelementptr inbounds nuw i8, ptr %0, i64 10
  %25 = getelementptr inbounds nuw i8, ptr %0, i64 24
  %26 = load ptr, ptr %25, align 8
  %27 = select i1 %.not.i.i.i, ptr %26, ptr %24
  %28 = tail call noundef i32 @_ZNK6icu_7713UnicodeString7indexOfEPKDsiiii(ptr noundef nonnull align 8 dereferenceable(64) %1, ptr noundef %27, i32 noundef %spec.select.i.i, i32 noundef %22, i32 noundef 0, i32 noundef %18)
  %29 = icmp eq i32 %28, 0
  br i1 %29, label %30, label %_ZNK6icu_7713UnicodeString7indexOfERKS0_.exit.thread

30:                                               ; preds = %_ZNK6icu_7713UnicodeString7indexOfERKS0_.exit
  %31 = load i16, ptr %11, align 8, !tbaa !15
  %32 = icmp slt i16 %31, 0
  %33 = ashr i16 %31, 5
  %34 = sext i16 %33 to i32
  %35 = load i32, ptr %16, align 4
  %36 = select i1 %32, i32 %35, i32 %34
  %37 = load i16, ptr %3, align 8, !tbaa !15
  %38 = icmp slt i16 %37, 0
  %39 = ashr i16 %37, 5
  %40 = sext i16 %39 to i32
  %41 = load i32, ptr %8, align 4
  %42 = select i1 %38, i32 %41, i32 %40
  %43 = icmp eq i32 %36, %42
  br i1 %43, label %_ZNK6icu_7713UnicodeString7indexOfERKS0_.exit.thread, label %44

44:                                               ; preds = %30
  %45 = icmp ult i32 %42, %36
  br i1 %45, label %46, label %_ZNK6icu_7713UnicodeString7indexOfERKS0_.exit.thread

46:                                               ; preds = %44
  %47 = and i16 %31, 2
  %.not.i.i.i7 = icmp eq i16 %47, 0
  %48 = getelementptr inbounds nuw i8, ptr %1, i64 10
  %49 = getelementptr inbounds nuw i8, ptr %1, i64 24
  %50 = load ptr, ptr %49, align 8
  %51 = select i1 %.not.i.i.i7, ptr %50, ptr %48
  %52 = sext i32 %42 to i64
  %53 = getelementptr inbounds i16, ptr %51, i64 %52
  %54 = load i16, ptr %53, align 2, !tbaa !16
  %55 = icmp eq i16 %54, 95
  br label %_ZNK6icu_7713UnicodeString7indexOfERKS0_.exit.thread

_ZNK6icu_7713UnicodeString7indexOfERKS0_.exit.thread: ; preds = %46, %44, %.sink.split.i.i.i, %2, %_ZNK6icu_7713UnicodeString10pinIndicesERiS1_.exit.i.i, %30, %_ZNK6icu_7713UnicodeString7indexOfERKS0_.exit
  %56 = phi i1 [ false, %_ZNK6icu_7713UnicodeString7indexOfERKS0_.exit ], [ true, %30 ], [ false, %_ZNK6icu_7713UnicodeString10pinIndicesERiS1_.exit.i.i ], [ false, %2 ], [ false, %.sink.split.i.i.i ], [ %55, %46 ], [ false, %44 ]
  ret i1 %56
}